; Function Attrs: nofree nounwind sspstrong uwtable
define dso_local i32 @scan() local_unnamed_addr #0 {
  %1 = alloca i32, align 4
  %2 = bitcast i32* %1 to i8*
  call void @llvm.lifetime.start.p0i8(i64 4, i8* nonnull %2) #5
  %3 = call i32 (i8*, ...) @__isoc99_scanf(i8* getelementptr inbounds ([3 x i8], [3 x i8]* @.str, i64 0, i64 0), i32* nonnull %1)
  %4 = load i32, i32* %1, align 4, !tbaa !5
  call void @llvm.lifetime.end.p0i8(i64 4, i8* nonnull %2) #5
  ret i32 %4
}

; Function Attrs: nofree nounwind sspstrong uwtable
define dso_local i32 @fuzhi(i32* nocapture %0, i32 %1) local_unnamed_addr #0 {
  %3 = alloca i32, align 4
  %4 = bitcast i32* %3 to i8*
  call void @llvm.lifetime.start.p0i8(i64 4, i8* nonnull %4) #5
  %5 = icmp sgt i32 %1, 0
  br i1 %5, label %6, label %15

6:                                                ; preds = %2
  %7 = zext i32 %1 to i64
  br label %8

8:                                                ; preds = %6, %8
  %9 = phi i64 [ 0, %6 ], [ %13, %8 ]
  %10 = call i32 (i8*, ...) @__isoc99_scanf(i8* getelementptr inbounds ([3 x i8], [3 x i8]* @.str, i64 0, i64 0), i32* nonnull %3)
  %11 = load i32, i32* %3, align 4, !tbaa !5
  %12 = getelementptr inbounds i32, i32* %0, i64 %9
  store i32 %11, i32* %12, align 4, !tbaa !5
  %13 = add nuw nsw i64 %9, 1
  %14 = icmp eq i64 %13, %7
  br i1 %14, label %15, label %8, !llvm.loop !9

15:                                               ; preds = %8, %2
  call void @llvm.lifetime.end.p0i8(i64 4, i8* nonnull %4) #5
  ret i32 0
}

; Function Attrs: nofree norecurse nosync nounwind sspstrong uwtable
define dso_local i32 @paixu(i32* nocapture %0, i32 %1) local_unnamed_addr #3 {
  %3 = icmp sgt i32 %1, 1
  br i1 %3, label %4, label %48

4:                                                ; preds = %2, %44
  %5 = phi i32 [ %47, %44 ], [ 0, %2 ]
  %6 = phi i32 [ %45, %44 ], [ 1, %2 ]
  %7 = xor i32 %5, -1
  %8 = add i32 %7, %1
  %9 = zext i32 %8 to i64
  %10 = icmp slt i32 %6, %1
  br i1 %10, label %11, label %44

11:                                               ; preds = %4
  %12 = load i32, i32* %0, align 4, !tbaa !5
  %13 = and i64 %9, 1
  %14 = icmp eq i32 %8, 1
  br i1 %14, label %33, label %15

15:                                               ; preds = %11
  %16 = and i64 %9, 4294967294
  br label %17

17:                                               ; preds = %51, %15
  %18 = phi i32 [ %12, %15 ], [ %52, %51 ]
  %19 = phi i64 [ 0, %15 ], [ %29, %51 ]
  %20 = phi i64 [ %16, %15 ], [ %53, %51 ]
  %21 = or i64 %19, 1
  %22 = getelementptr inbounds i32, i32* %0, i64 %21
  %23 = load i32, i32* %22, align 4, !tbaa !5
  %24 = icmp sgt i32 %18, %23
  br i1 %24, label %25, label %27

25:                                               ; preds = %17
  %26 = getelementptr inbounds i32, i32* %0, i64 %19
  store i32 %23, i32* %26, align 4, !tbaa !5
  store i32 %18, i32* %22, align 4, !tbaa !5
  br label %27

27:                                               ; preds = %17, %25
  %28 = phi i32 [ %23, %17 ], [ %18, %25 ]
  %29 = add nuw nsw i64 %19, 2
  %30 = getelementptr inbounds i32, i32* %0, i64 %29
  %31 = load i32, i32* %30, align 4, !tbaa !5
  %32 = icmp sgt i32 %28, %31
  br i1 %32, label %49, label %51

33:                                               ; preds = %51, %11
  %34 = phi i32 [ %12, %11 ], [ %52, %51 ]
  %35 = phi i64 [ 0, %11 ], [ %29, %51 ]
  %36 = icmp eq i64 %13, 0
  br i1 %36, label %44, label %37

37:                                               ; preds = %33
  %38 = add nuw nsw i64 %35, 1
  %39 = getelementptr inbounds i32, i32* %0, i64 %38
  %40 = load i32, i32* %39, align 4, !tbaa !5
  %41 = icmp sgt i32 %34, %40
  br i1 %41, label %42, label %44

42:                                               ; preds = %37
  %43 = getelementptr inbounds i32, i32* %0, i64 %35
  store i32 %40, i32* %43, align 4, !tbaa !5
  store i32 %34, i32* %39, align 4, !tbaa !5
  br label %44

44:                                               ; preds = %33, %37, %42, %4
  %45 = add nuw nsw i32 %6, 1
  %46 = icmp eq i32 %45, %1
  %47 = add i32 %5, 1
  br i1 %46, label %48, label %4, !llvm.loop !11

48:                                               ; preds = %44, %2
  ret i32 0

49:                                               ; preds = %27
  %50 = getelementptr inbounds i32, i32* %0, i64 %21
  store i32 %31, i32* %50, align 4, !tbaa !5
  store i32 %28, i32* %30, align 4, !tbaa !5
  br label %51

51:                                               ; preds = %49, %27
  %52 = phi i32 [ %31, %27 ], [ %28, %49 ]
  %53 = add i64 %20, -2
  %54 = icmp eq i64 %53, 0
  br i1 %54, label %33, label %17, !llvm.loop !12
}

; Function Attrs: nofree nounwind sspstrong uwtable
define dso_local i32 @print(i32* nocapture readonly %0, i32* nocapture readonly %1, i32 %2, i32 %3) local_unnamed_addr #0 {
  %5 = icmp sgt i32 %2, 0
  br i1 %5, label %6, label %8

6:                                                ; preds = %4
  %7 = zext i32 %2 to i64
  br label %14

8:                                                ; preds = %14, %4
  %9 = icmp sgt i32 %3, 0
  br i1 %9, label %10, label %32

10:                                               ; preds = %8
  %11 = add nsw i32 %3, -1
  %12 = zext i32 %11 to i64
  %13 = zext i32 %3 to i64
  br label %21

14:                                               ; preds = %6, %14
  %15 = phi i64 [ 0, %6 ], [ %19, %14 ]
  %16 = getelementptr inbounds i32, i32* %0, i64 %15
  %17 = load i32, i32* %16, align 4, !tbaa !5
  %18 = tail call i32 (i8*, ...) @printf(i8* nonnull dereferenceable(1) getelementptr inbounds ([4 x i8], [4 x i8]* @.str.1, i64 0, i64 0), i32 %17)
  %19 = add nuw nsw i64 %15, 1
  %20 = icmp eq i64 %19, %7
  br i1 %20, label %8, label %14, !llvm.loop !13

21:                                               ; preds = %10, %29
  %22 = phi i64 [ 0, %10 ], [ %30, %29 ]
  %23 = getelementptr inbounds i32, i32* %1, i64 %22
  %24 = load i32, i32* %23, align 4, !tbaa !5
  %25 = tail call i32 (i8*, ...) @printf(i8* nonnull dereferenceable(1) getelementptr inbounds ([3 x i8], [3 x i8]* @.str, i64 0, i64 0), i32 %24)
  %26 = icmp eq i64 %22, %12
  br i1 %26, label %29, label %27

27:                                               ; preds = %21
  %28 = tail call i32 @putchar(i32 32)
  br label %29

29:                                               ; preds = %21, %27
  %30 = add nuw nsw i64 %22, 1
  %31 = icmp eq i64 %30, %13
  br i1 %31, label %32, label %21, !llvm.loop !14

32:                                               ; preds = %29, %8
  ret i32 0
}

; Function Attrs: nofree nounwind sspstrong uwtable
define dso_local i32 @main() local_unnamed_addr #0 {
  %1 = alloca i32, align 4
  %2 = alloca i32, align 4
  %3 = alloca i32, align 4
  %4 = alloca i32, align 4
  %5 = alloca [100 x i32], align 16
  %6 = alloca [100 x i32], align 16
  %7 = bitcast [100 x i32]* %5 to i8*
  call void @llvm.lifetime.start.p0i8(i64 400, i8* nonnull %7) #5
  %8 = bitcast [100 x i32]* %6 to i8*
  call void @llvm.lifetime.start.p0i8(i64 400, i8* nonnull %8) #5
  %9 = bitcast i32* %4 to i8*
  call void @llvm.lifetime.start.p0i8(i64 4, i8* nonnull %9) #5
  %10 = call i32 (i8*, ...) @__isoc99_scanf(i8* getelementptr inbounds ([3 x i8], [3 x i8]* @.str, i64 0, i64 0), i32* nonnull %4) #5
  %11 = load i32, i32* %4, align 4, !tbaa !5
  call void @llvm.lifetime.end.p0i8(i64 4, i8* nonnull %9) #5
  %12 = bitcast i32* %3 to i8*
  call void @llvm.lifetime.start.p0i8(i64 4, i8* nonnull %12) #5
  %13 = call i32 (i8*, ...) @__isoc99_scanf(i8* getelementptr inbounds ([3 x i8], [3 x i8]* @.str, i64 0, i64 0), i32* nonnull %3) #5
  %14 = load i32, i32* %3, align 4, !tbaa !5
  call void @llvm.lifetime.end.p0i8(i64 4, i8* nonnull %12) #5
  %15 = getelementptr inbounds [100 x i32], [100 x i32]* %5, i64 0, i64 0
  %16 = bitcast i32* %2 to i8*
  call void @llvm.lifetime.start.p0i8(i64 4, i8* nonnull %16) #5
  %17 = icmp sgt i32 %11, 0
  br i1 %17, label %18, label %27

18:                                               ; preds = %0
  %19 = zext i32 %11 to i64
  br label %20

20:                                               ; preds = %20, %18
  %21 = phi i64 [ 0, %18 ], [ %25, %20 ]
  %22 = call i32 (i8*, ...) @__isoc99_scanf(i8* getelementptr inbounds ([3 x i8], [3 x i8]* @.str, i64 0, i64 0), i32* nonnull %2) #5
  %23 = load i32, i32* %2, align 4, !tbaa !5
  %24 = getelementptr inbounds [100 x i32], [100 x i32]* %5, i64 0, i64 %21
  store i32 %23, i32* %24, align 4, !tbaa !5
  %25 = add nuw nsw i64 %21, 1
  %26 = icmp eq i64 %25, %19
  br i1 %26, label %27, label %20, !llvm.loop !9

27:                                               ; preds = %20, %0
  call void @llvm.lifetime.end.p0i8(i64 4, i8* nonnull %16) #5
  %28 = getelementptr inbounds [100 x i32], [100 x i32]* %6, i64 0, i64 0
  %29 = bitcast i32* %1 to i8*
  call void @llvm.lifetime.start.p0i8(i64 4, i8* nonnull %29) #5
  %30 = icmp sgt i32 %14, 0
  br i1 %30, label %31, label %40

31:                                               ; preds = %27
  %32 = zext i32 %14 to i64
  br label %33

33:                                               ; preds = %33, %31
  %34 = phi i64 [ 0, %31 ], [ %38, %33 ]
  %35 = call i32 (i8*, ...) @__isoc99_scanf(i8* getelementptr inbounds ([3 x i8], [3 x i8]* @.str, i64 0, i64 0), i32* nonnull %1) #5
  %36 = load i32, i32* %1, align 4, !tbaa !5
  %37 = getelementptr inbounds [100 x i32], [100 x i32]* %6, i64 0, i64 %34
  store i32 %36, i32* %37, align 4, !tbaa !5
  %38 = add nuw nsw i64 %34, 1
  %39 = icmp eq i64 %38, %32
  br i1 %39, label %40, label %33, !llvm.loop !9

40:                                               ; preds = %33, %27
  call void @llvm.lifetime.end.p0i8(i64 4, i8* nonnull %29) #5
  %41 = icmp sgt i32 %11, 1
  br i1 %41, label %42, label %86

42:                                               ; preds = %40, %82
  %43 = phi i32 [ %85, %82 ], [ 0, %40 ]
  %44 = phi i32 [ %83, %82 ], [ 1, %40 ]
  %45 = xor i32 %43, -1
  %46 = add i32 %11, %45
  %47 = zext i32 %46 to i64
  %48 = icmp slt i32 %44, %11
  br i1 %48, label %49, label %82

49:                                               ; preds = %42
  %50 = load i32, i32* %15, align 16, !tbaa !5
  %51 = and i64 %47, 1
  %52 = icmp eq i32 %46, 1
  br i1 %52, label %71, label %53

53:                                               ; preds = %49
  %54 = and i64 %47, 4294967294
  br label %55

55:                                               ; preds = %161, %53
  %56 = phi i32 [ %50, %53 ], [ %162, %161 ]
  %57 = phi i64 [ 0, %53 ], [ %67, %161 ]
  %58 = phi i64 [ %54, %53 ], [ %163, %161 ]
  %59 = or i64 %57, 1
  %60 = getelementptr inbounds [100 x i32], [100 x i32]* %5, i64 0, i64 %59
  %61 = load i32, i32* %60, align 4, !tbaa !5
  %62 = icmp sgt i32 %56, %61
  br i1 %62, label %63, label %65

63:                                               ; preds = %55
  %64 = getelementptr inbounds [100 x i32], [100 x i32]* %5, i64 0, i64 %57
  store i32 %61, i32* %64, align 8, !tbaa !5
  store i32 %56, i32* %60, align 4, !tbaa !5
  br label %65

65:                                               ; preds = %63, %55
  %66 = phi i32 [ %61, %55 ], [ %56, %63 ]
  %67 = add nuw nsw i64 %57, 2
  %68 = getelementptr inbounds [100 x i32], [100 x i32]* %5, i64 0, i64 %67
  %69 = load i32, i32* %68, align 8, !tbaa !5
  %70 = icmp sgt i32 %66, %69
  br i1 %70, label %159, label %161

71:                                               ; preds = %161, %49
  %72 = phi i32 [ %50, %49 ], [ %162, %161 ]
  %73 = phi i64 [ 0, %49 ], [ %67, %161 ]
  %74 = icmp eq i64 %51, 0
  br i1 %74, label %82, label %75

75:                                               ; preds = %71
  %76 = add nuw nsw i64 %73, 1
  %77 = getelementptr inbounds [100 x i32], [100 x i32]* %5, i64 0, i64 %76
  %78 = load i32, i32* %77, align 4, !tbaa !5
  %79 = icmp sgt i32 %72, %78
  br i1 %79, label %80, label %82

80:                                               ; preds = %75
  %81 = getelementptr inbounds [100 x i32], [100 x i32]* %5, i64 0, i64 %73
  store i32 %78, i32* %81, align 4, !tbaa !5
  store i32 %72, i32* %77, align 4, !tbaa !5
  br label %82

82:                                               ; preds = %71, %75, %80, %42
  %83 = add nuw nsw i32 %44, 1
  %84 = icmp eq i32 %83, %11
  %85 = add i32 %43, 1
  br i1 %84, label %86, label %42, !llvm.loop !11

86:                                               ; preds = %82, %40
  %87 = icmp sgt i32 %14, 1
  br i1 %87, label %88, label %132

88:                                               ; preds = %86, %128
  %89 = phi i32 [ %131, %128 ], [ 0, %86 ]
  %90 = phi i32 [ %129, %128 ], [ 1, %86 ]
  %91 = xor i32 %89, -1
  %92 = add i32 %14, %91
  %93 = zext i32 %92 to i64
  %94 = icmp slt i32 %90, %14
  br i1 %94, label %95, label %128

95:                                               ; preds = %88
  %96 = load i32, i32* %28, align 16, !tbaa !5
  %97 = and i64 %93, 1
  %98 = icmp eq i32 %92, 1
  br i1 %98, label %117, label %99

99:                                               ; preds = %95
  %100 = and i64 %93, 4294967294
  br label %101

101:                                              ; preds = %167, %99
  %102 = phi i32 [ %96, %99 ], [ %168, %167 ]
  %103 = phi i64 [ 0, %99 ], [ %113, %167 ]
  %104 = phi i64 [ %100, %99 ], [ %169, %167 ]
  %105 = or i64 %103, 1
  %106 = getelementptr inbounds [100 x i32], [100 x i32]* %6, i64 0, i64 %105
  %107 = load i32, i32* %106, align 4, !tbaa !5
  %108 = icmp sgt i32 %102, %107
  br i1 %108, label %109, label %111

109:                                              ; preds = %101
  %110 = getelementptr inbounds [100 x i32], [100 x i32]* %6, i64 0, i64 %103
  store i32 %107, i32* %110, align 8, !tbaa !5
  store i32 %102, i32* %106, align 4, !tbaa !5
  br label %111

111:                                              ; preds = %109, %101
  %112 = phi i32 [ %107, %101 ], [ %102, %109 ]
  %113 = add nuw nsw i64 %103, 2
  %114 = getelementptr inbounds [100 x i32], [100 x i32]* %6, i64 0, i64 %113
  %115 = load i32, i32* %114, align 8, !tbaa !5
  %116 = icmp sgt i32 %112, %115
  br i1 %116, label %165, label %167

117:                                              ; preds = %167, %95
  %118 = phi i32 [ %96, %95 ], [ %168, %167 ]
  %119 = phi i64 [ 0, %95 ], [ %113, %167 ]
  %120 = icmp eq i64 %97, 0
  br i1 %120, label %128, label %121

121:                                              ; preds = %117
  %122 = add nuw nsw i64 %119, 1
  %123 = getelementptr inbounds [100 x i32], [100 x i32]* %6, i64 0, i64 %122
  %124 = load i32, i32* %123, align 4, !tbaa !5
  %125 = icmp sgt i32 %118, %124
  br i1 %125, label %126, label %128

126:                                              ; preds = %121
  %127 = getelementptr inbounds [100 x i32], [100 x i32]* %6, i64 0, i64 %119
  store i32 %124, i32* %127, align 4, !tbaa !5
  store i32 %118, i32* %123, align 4, !tbaa !5
  br label %128

128:                                              ; preds = %117, %121, %126, %88
  %129 = add nuw nsw i32 %90, 1
  %130 = icmp eq i32 %129, %14
  %131 = add i32 %89, 1
  br i1 %130, label %132, label %88, !llvm.loop !11

132:                                              ; preds = %128, %86
  br i1 %17, label %133, label %135

133:                                              ; preds = %132
  %134 = zext i32 %11 to i64
  br label %140

135:                                              ; preds = %140, %132
  br i1 %30, label %136, label %158

136:                                              ; preds = %135
  %137 = add nsw i32 %14, -1
  %138 = zext i32 %137 to i64
  %139 = zext i32 %14 to i64
  br label %147

140:                                              ; preds = %140, %133
  %141 = phi i64 [ 0, %133 ], [ %145, %140 ]
  %142 = getelementptr inbounds [100 x i32], [100 x i32]* %5, i64 0, i64 %141
  %143 = load i32, i32* %142, align 4, !tbaa !5
  %144 = call i32 (i8*, ...) @printf(i8* nonnull dereferenceable(1) getelementptr inbounds ([4 x i8], [4 x i8]* @.str.1, i64 0, i64 0), i32 %143) #5
  %145 = add nuw nsw i64 %141, 1
  %146 = icmp eq i64 %145, %134
  br i1 %146, label %135, label %140, !llvm.loop !13

147:                                              ; preds = %155, %136
  %148 = phi i64 [ 0, %136 ], [ %156, %155 ]
  %149 = getelementptr inbounds [100 x i32], [100 x i32]* %6, i64 0, i64 %148
  %150 = load i32, i32* %149, align 4, !tbaa !5
  %151 = call i32 (i8*, ...) @printf(i8* nonnull dereferenceable(1) getelementptr inbounds ([3 x i8], [3 x i8]* @.str, i64 0, i64 0), i32 %150) #5
  %152 = icmp eq i64 %148, %138
  br i1 %152, label %155, label %153

153:                                              ; preds = %147
  %154 = call i32 @putchar(i32 32) #5
  br label %155

155:                                              ; preds = %153, %147
  %156 = add nuw nsw i64 %148, 1
  %157 = icmp eq i64 %156, %139
  br i1 %157, label %158, label %147, !llvm.loop !14

158:                                              ; preds = %155, %135
  call void @llvm.lifetime.end.p0i8(i64 400, i8* nonnull %8) #5
  call void @llvm.lifetime.end.p0i8(i64 400, i8* nonnull %7) #5
  ret i32 0

159:                                              ; preds = %65
  %160 = getelementptr inbounds [100 x i32], [100 x i32]* %5, i64 0, i64 %59
  store i32 %69, i32* %160, align 4, !tbaa !5
  store i32 %66, i32* %68, align 8, !tbaa !5
  br label %161

161:                                              ; preds = %159, %65
  %162 = phi i32 [ %69, %65 ], [ %66, %159 ]
  %163 = add i64 %58, -2
  %164 = icmp eq i64 %163, 0
  br i1 %164, label %71, label %55, !llvm.loop !12

165:                                              ; preds = %111
  %166 = getelementptr inbounds [100 x i32], [100 x i32]* %6, i64 0, i64 %105
  store i32 %115, i32* %166, align 4, !tbaa !5
  store i32 %112, i32* %114, align 8, !tbaa !5
  br label %167

167:                                              ; preds = %165, %111
  %168 = phi i32 [ %115, %111 ], [ %112, %165 ]
  %169 = add i64 %104, -2
  %170 = icmp eq i64 %169, 0
  br i1 %170, label %117, label %101, !llvm.loop !12
}